target datalayout = "e-m:e-p270:32:32-p271:32:32-p272:64:64-i64:64-i128:128-f80:128-n8:16:32:64-S128"
target triple = "x86_64-pc-linux-gnu"

%struct.___itt_global = type { [8 x i8], i64, i64, i64, i64, i64, i64, %union.pthread_mutex_t, ptr, ptr, ptr, ptr, ptr, ptr, ptr, ptr, i32, ptr, i32, ptr, ptr }
%union.pthread_mutex_t = type { %struct.__pthread_mutex_s }
%struct.__pthread_mutex_s = type { i32, i32, i32, i32, i32, i16, i16, %struct.__pthread_internal_list }
%struct.__pthread_internal_list = type { ptr, ptr }
%struct.___itt_id = type { i64, i64, i64 }

@__itt_relation_add_to_current_ptr__3_0 = global ptr @_ZL38__itt_relation_add_to_current_init_3_0PK13___itt_domain14__itt_relation9___itt_id, align 8

; Function Attrs: mustprogress sspstrong uwtable
define internal void @_ZL38__itt_relation_add_to_current_init_3_0PK13___itt_domain14__itt_relation9___itt_id(ptr noundef %0, i32 noundef %1, ptr noundef byval(%struct.___itt_id) align 8 %2) #0 {
  %4 = alloca ptr, align 8
  %5 = alloca i32, align 4
  %6 = alloca %struct.___itt_id, align 8
  store ptr %0, ptr %4, align 8, !tbaa !32
  store i32 %1, ptr %5, align 4, !tbaa !43
  %7 = load volatile i64, ptr getelementptr inbounds nuw (%struct.___itt_global, ptr @__itt__ittapi_global, i32 0, i32 4), align 8, !tbaa !3
  %8 = icmp ne i64 %7, 0
  br i1 %8, label %13, label %9

9:                                                ; preds = %3
  %10 = load ptr, ptr getelementptr inbounds nuw (%struct.___itt_global, ptr @__itt__ittapi_global, i32 0, i32 13), align 8, !tbaa !21
  %11 = icmp eq ptr %10, null
  br i1 %11, label %12, label %13

12:                                               ; preds = %9
  call void @ITT_DoOneTimeInitialization()
  br label %13

13:                                               ; preds = %12, %9, %3
  %14 = load ptr, ptr @__itt_relation_add_to_current_ptr__3_0, align 8, !tbaa !22
  %15 = icmp ne ptr %14, null
  br i1 %15, label %16, label %23

16:                                               ; preds = %13
  %17 = load ptr, ptr @__itt_relation_add_to_current_ptr__3_0, align 8, !tbaa !22
  %18 = icmp ne ptr %17, @_ZL38__itt_relation_add_to_current_init_3_0PK13___itt_domain14__itt_relation9___itt_id
  br i1 %18, label %19, label %23

19:                                               ; preds = %16
  %20 = load ptr, ptr @__itt_relation_add_to_current_ptr__3_0, align 8, !tbaa !22
  %21 = load ptr, ptr %4, align 8, !tbaa !32
  %22 = load i32, ptr %5, align 4, !tbaa !43
  call void @llvm.memcpy.p0.p0.i64(ptr align 8 %6, ptr align 8 %2, i64 24, i1 false), !tbaa.struct !33
  call void %20(ptr noundef %21, i32 noundef %22, ptr noundef byval(%struct.___itt_id) align 8 %6)
  br label %24

23:                                               ; preds = %16, %13
  br label %24

24:                                               ; preds = %23, %19
  ret void
}